target datalayout = "e-m:e-p270:32:32-p271:32:32-p272:64:64-i64:64-i128:128-f80:128-n8:16:32:64-S128"
target triple = "x86_64-pc-linux-gnu"

%"struct.bv::bv_bounds_base" = type { ptr, ptr, %class.bv_util, %class.vector.26, %class.svector.27, %class.svector.29, %class.obj_map.31, i8, %class.ptr_vector.36, %class.ptr_vector.36 }
%class.bv_util = type { %class.bv_recognizers, ptr, ptr }
%class.bv_recognizers = type { i32 }
%class.vector.26 = type { ptr }
%class.svector.27 = type { %class.vector.28 }
%class.vector.28 = type { ptr }
%class.svector.29 = type { %class.vector.30 }
%class.vector.30 = type { ptr }
%class.obj_map.31 = type { %class.core_hashtable.32 }
%class.core_hashtable.32 = type <{ ptr, i32, i32, i32, [4 x i8] }>
%class.ptr_vector.36 = type { %class.vector.37 }
%class.vector.37 = type { ptr }

; Function Attrs: mustprogress nounwind uwtable
define linkonce_odr hidden noundef i32 @_ZNK6vectorIN2bv10undo_boundELb1EjE4sizeEv(ptr noundef nonnull align 8 dereferenceable(8) %0) #6 comdat align 2 {
  %2 = alloca i32, align 4
  %3 = alloca ptr, align 8
  store ptr %0, ptr %3, align 8, !tbaa !120
  %4 = load ptr, ptr %3, align 8
  %5 = getelementptr inbounds nuw %class.vector.26, ptr %4, i32 0, i32 0
  %6 = load ptr, ptr %5, align 8, !tbaa !122
  %7 = icmp eq ptr %6, null
  br i1 %7, label %8, label %9

8:                                                ; preds = %1
  store i32 0, ptr %2, align 4
  br label %14

9:                                                ; preds = %1
  %10 = getelementptr inbounds nuw %class.vector.26, ptr %4, i32 0, i32 0
  %11 = load ptr, ptr %10, align 8, !tbaa !122
  %12 = getelementptr inbounds i32, ptr %11, i64 -1
  %13 = load i32, ptr %12, align 4, !tbaa !119
  store i32 %13, ptr %2, align 4
  br label %14

14:                                               ; preds = %9, %8
  %15 = load i32, ptr %2, align 4
  ret i32 %15
}

; Function Attrs: mustprogress nounwind uwtable
define internal noundef i32 @_ZNK12_GLOBAL__N_120bv_bounds_simplifier11scope_levelEv(ptr noundef nonnull align 8 dereferenceable(136) %0) unnamed_addr #6 align 2 {
  %2 = alloca ptr, align 8
  store ptr %0, ptr %2, align 8, !tbaa !10
  %3 = load ptr, ptr %2, align 8
  %4 = getelementptr inbounds i8, ptr %3, i64 16
  %5 = getelementptr inbounds nuw %"struct.bv::bv_bounds_base", ptr %4, i32 0, i32 3
  %6 = call noundef i32 @_ZNK6vectorIN2bv10undo_boundELb1EjE4sizeEv(ptr noundef nonnull align 8 dereferenceable(8) %5)
  ret i32 %6
}