; Function Attrs: mustprogress nofree norecurse nosync nounwind willreturn memory(read, inaccessiblemem: none) uwtable
define internal noundef i32 @_ZNK12_GLOBAL__N_120bv_bounds_simplifier11scope_levelEv(ptr noundef nonnull readonly align 8 captures(none) dereferenceable(136) %0) unnamed_addr #5 align 2 {
  %2 = getelementptr inbounds nuw i8, ptr %0, i64 56
  %3 = load ptr, ptr %2, align 8, !tbaa !196
  %4 = icmp eq ptr %3, null
  br i1 %4, label %_ZNK6vectorIN2bv10undo_boundELb1EjE4sizeEv.exit, label %5

5:                                                ; preds = %1
  %6 = getelementptr inbounds i8, ptr %3, i64 -4
  %7 = load i32, ptr %6, align 4, !tbaa !197
  br label %_ZNK6vectorIN2bv10undo_boundELb1EjE4sizeEv.exit

_ZNK6vectorIN2bv10undo_boundELb1EjE4sizeEv.exit:  ; preds = %1, %5
  %.0.i = phi i32 [ %7, %5 ], [ 0, %1 ]
  ret i32 %.0.i
}